(dp1
S'drop_out'
p2
F0.5
sS'rnn_dim'
p3
I200
sS'buckets_char'
p4
(lp5
I10
aI20
aI30
aI40
aI50
aI60
aI70
aI80
aI90
aI100
aI110
aI120
aI130
aI140
aI150
aI160
aI170
aI180
aI190
aI199
aI210
aI219
aI228
aI239
aI250
aI258
aI269
aI272
aI285
aI292
aI316
aI324
aI331
aI354
aI376
aI428
aI431
asS'ngram'
p6
(lp7
I261528
aI796727
asS'rnn_num'
p8
I1
sS'emb_dim'
p9
I64
sS'gru'
p10
I00
sS'nums_chars'
p11
I4551
sS'nums_tags'
p12
(lp13
I129
asS'tag_scheme'
p14
S'BIES'
p15
sS'crf'
p16
I1
s.